target datalayout = "e-m:e-p270:32:32-p271:32:32-p272:64:64-i64:64-i128:128-f80:128-n8:16:32:64-S128"
target triple = "x86_64-pc-linux-gnu"

%struct.H5FL_blk_head_t = type { i8, i32, i32, i64, ptr, ptr }
%struct.H5FL_seq_head_t = type { %struct.H5FL_blk_head_t, i64 }
%struct.H5O_loc_t = type { ptr, i64, i8 }
%struct.H5A_t = type { %struct.H5O_shared_t, %struct.H5O_loc_t, i8, %struct.H5G_name_t, ptr }
%struct.H5O_shared_t = type { i32, ptr, i32, %union.anon }
%union.anon = type { %struct.H5O_mesg_loc_t }
%struct.H5O_mesg_loc_t = type { i32, i64 }
%struct.H5G_name_t = type { ptr, ptr, i32 }
%struct.H5A_shared_t = type { i8, ptr, i32, ptr, i64, ptr, i64, ptr, i64, i32, i32 }
%struct.H5A_compact_bt_ud_t = type { ptr, ptr, i8 }
%struct.H5A_attr_table_t = type { i64, i64, ptr }
%struct.H5O_mesg_t = type { ptr, i8, i8, i32, i32, ptr, ptr, i64 }

@.str.3 = private unnamed_addr constant [100 x i8] c"generated/home/dtcxzyw/WorkSpace/Projects/compilers/llvm-opt-benchmark/bench/hdf5/hdf5/src/H5Aint.c\00", align 1
@H5E_ATTR_g = external global i64, align 8
@H5E_CANTCOPY_g = external global i64, align 8
@H5E_NOSPACE_g = external global i64, align 8
@H5E_RESOURCE_g = external global i64, align 8
@H5_H5A_t_ptr_seq_free_list = internal global %struct.H5FL_seq_head_t { %struct.H5FL_blk_head_t { i8 0, i32 0, i32 0, i64 0, ptr @.str.99, ptr null }, i64 8 }, align 8
@__func__.H5A__compact_build_table_cb = private unnamed_addr constant [28 x i8] c"H5A__compact_build_table_cb\00", align 1
@.str.97 = private unnamed_addr constant [33 x i8] c"unable to extend attribute table\00", align 1
@.str.98 = private unnamed_addr constant [21 x i8] c"can't copy attribute\00", align 1

; Function Attrs: nounwind uwtable
define internal i32 @H5A__compact_build_table_cb(ptr noundef %0, ptr noundef %1, i32 noundef %2, ptr noundef %3, ptr noundef %4) #0 {
  %6 = alloca ptr, align 8
  %7 = alloca ptr, align 8
  %8 = alloca i32, align 4
  %9 = alloca ptr, align 8
  %10 = alloca ptr, align 8
  %11 = alloca ptr, align 8
  %12 = alloca i32, align 4
  %13 = alloca i8, align 1
  %14 = alloca ptr, align 8
  %15 = alloca i64, align 8
  store ptr %0, ptr %6, align 8
  store ptr %1, ptr %7, align 8
  store i32 %2, ptr %8, align 4
  store ptr %3, ptr %9, align 8
  store ptr %4, ptr %10, align 8
  %16 = load ptr, ptr %10, align 8
  store ptr %16, ptr %11, align 8
  store i32 0, ptr %12, align 4
  store i8 0, ptr %13, align 1
  %17 = load ptr, ptr %11, align 8
  %18 = getelementptr inbounds %struct.H5A_compact_bt_ud_t, ptr %17, i32 0, i32 1
  %19 = load ptr, ptr %18, align 8
  %20 = getelementptr inbounds %struct.H5A_attr_table_t, ptr %19, i32 0, i32 0
  %21 = load i64, ptr %20, align 8
  %22 = load ptr, ptr %11, align 8
  %23 = getelementptr inbounds %struct.H5A_compact_bt_ud_t, ptr %22, i32 0, i32 1
  %24 = load ptr, ptr %23, align 8
  %25 = getelementptr inbounds %struct.H5A_attr_table_t, ptr %24, i32 0, i32 1
  %26 = load i64, ptr %25, align 8
  %27 = icmp eq i64 %21, %26
  br i1 %27, label %28, label %80

28:                                               ; preds = %5
  %29 = load ptr, ptr %11, align 8
  %30 = getelementptr inbounds %struct.H5A_compact_bt_ud_t, ptr %29, i32 0, i32 1
  %31 = load ptr, ptr %30, align 8
  %32 = getelementptr inbounds %struct.H5A_attr_table_t, ptr %31, i32 0, i32 1
  %33 = load i64, ptr %32, align 8
  %34 = mul i64 2, %33
  %35 = icmp ugt i64 1, %34
  br i1 %35, label %36, label %37

36:                                               ; preds = %28
  br label %44

37:                                               ; preds = %28
  %38 = load ptr, ptr %11, align 8
  %39 = getelementptr inbounds %struct.H5A_compact_bt_ud_t, ptr %38, i32 0, i32 1
  %40 = load ptr, ptr %39, align 8
  %41 = getelementptr inbounds %struct.H5A_attr_table_t, ptr %40, i32 0, i32 1
  %42 = load i64, ptr %41, align 8
  %43 = mul i64 2, %42
  br label %44

44:                                               ; preds = %37, %36
  %45 = phi i64 [ 1, %36 ], [ %43, %37 ]
  store i64 %45, ptr %15, align 8
  %46 = load ptr, ptr %11, align 8
  %47 = getelementptr inbounds %struct.H5A_compact_bt_ud_t, ptr %46, i32 0, i32 1
  %48 = load ptr, ptr %47, align 8
  %49 = getelementptr inbounds %struct.H5A_attr_table_t, ptr %48, i32 0, i32 2
  %50 = load ptr, ptr %49, align 8
  %51 = load i64, ptr %15, align 8
  %52 = call ptr @H5FL_seq_realloc(ptr noundef @H5_H5A_t_ptr_seq_free_list, ptr noundef %50, i64 noundef %51)
  store ptr %52, ptr %14, align 8
  %53 = icmp eq ptr null, %52
  br i1 %53, label %54, label %69

54:                                               ; preds = %44
  br label %55

55:                                               ; preds = %54
  br label %56

56:                                               ; preds = %55
  br label %57

57:                                               ; preds = %56
  %58 = load i64, ptr @H5E_RESOURCE_g, align 8
  %59 = load i64, ptr @H5E_NOSPACE_g, align 8
  %60 = call i32 (ptr, ptr, i32, i64, i64, ptr, ...) @H5E_printf_stack(ptr noundef @.str.3, ptr noundef @__func__.H5A__compact_build_table_cb, i32 noundef 1458, i64 noundef %58, i64 noundef %59, ptr noundef @.str.97)
  br label %61

61:                                               ; preds = %57
  store i8 1, ptr %13, align 1
  %62 = load i8, ptr %13, align 1
  %63 = trunc i8 %62 to i1
  %64 = zext i1 %63 to i8
  store i8 %64, ptr %13, align 1
  br label %65

65:                                               ; preds = %61
  br label %66

66:                                               ; preds = %65
  store i32 -1, ptr %12, align 4
  br label %141

67:                                               ; No predecessors!
  br label %68

68:                                               ; preds = %67
  br label %69

69:                                               ; preds = %68, %44
  %70 = load ptr, ptr %14, align 8
  %71 = load ptr, ptr %11, align 8
  %72 = getelementptr inbounds %struct.H5A_compact_bt_ud_t, ptr %71, i32 0, i32 1
  %73 = load ptr, ptr %72, align 8
  %74 = getelementptr inbounds %struct.H5A_attr_table_t, ptr %73, i32 0, i32 2
  store ptr %70, ptr %74, align 8
  %75 = load i64, ptr %15, align 8
  %76 = load ptr, ptr %11, align 8
  %77 = getelementptr inbounds %struct.H5A_compact_bt_ud_t, ptr %76, i32 0, i32 1
  %78 = load ptr, ptr %77, align 8
  %79 = getelementptr inbounds %struct.H5A_attr_table_t, ptr %78, i32 0, i32 1
  store i64 %75, ptr %79, align 8
  br label %80

80:                                               ; preds = %69, %5
  %81 = load ptr, ptr %7, align 8
  %82 = getelementptr inbounds %struct.H5O_mesg_t, ptr %81, i32 0, i32 5
  %83 = load ptr, ptr %82, align 8
  %84 = call ptr @H5A__copy(ptr noundef null, ptr noundef %83)
  %85 = load ptr, ptr %11, align 8
  %86 = getelementptr inbounds %struct.H5A_compact_bt_ud_t, ptr %85, i32 0, i32 1
  %87 = load ptr, ptr %86, align 8
  %88 = getelementptr inbounds %struct.H5A_attr_table_t, ptr %87, i32 0, i32 2
  %89 = load ptr, ptr %88, align 8
  %90 = load ptr, ptr %11, align 8
  %91 = getelementptr inbounds %struct.H5A_compact_bt_ud_t, ptr %90, i32 0, i32 1
  %92 = load ptr, ptr %91, align 8
  %93 = getelementptr inbounds %struct.H5A_attr_table_t, ptr %92, i32 0, i32 0
  %94 = load i64, ptr %93, align 8
  %95 = getelementptr inbounds ptr, ptr %89, i64 %94
  store ptr %84, ptr %95, align 8
  %96 = icmp eq ptr null, %84
  br i1 %96, label %97, label %112

97:                                               ; preds = %80
  br label %98

98:                                               ; preds = %97
  br label %99

99:                                               ; preds = %98
  br label %100

100:                                              ; preds = %99
  %101 = load i64, ptr @H5E_ATTR_g, align 8
  %102 = load i64, ptr @H5E_CANTCOPY_g, align 8
  %103 = call i32 (ptr, ptr, i32, i64, i64, ptr, ...) @H5E_printf_stack(ptr noundef @.str.3, ptr noundef @__func__.H5A__compact_build_table_cb, i32 noundef 1468, i64 noundef %101, i64 noundef %102, ptr noundef @.str.98)
  br label %104

104:                                              ; preds = %100
  store i8 1, ptr %13, align 1
  %105 = load i8, ptr %13, align 1
  %106 = trunc i8 %105 to i1
  %107 = zext i1 %106 to i8
  store i8 %107, ptr %13, align 1
  br label %108

108:                                              ; preds = %104
  br label %109

109:                                              ; preds = %108
  store i32 -1, ptr %12, align 4
  br label %141

110:                                              ; No predecessors!
  br label %111

111:                                              ; preds = %110
  br label %112

112:                                              ; preds = %111, %80
  %113 = load ptr, ptr %11, align 8
  %114 = getelementptr inbounds %struct.H5A_compact_bt_ud_t, ptr %113, i32 0, i32 2
  %115 = load i8, ptr %114, align 8
  %116 = trunc i8 %115 to i1
  br i1 %116, label %117, label %134

117:                                              ; preds = %112
  %118 = load i32, ptr %8, align 4
  %119 = load ptr, ptr %11, align 8
  %120 = getelementptr inbounds %struct.H5A_compact_bt_ud_t, ptr %119, i32 0, i32 1
  %121 = load ptr, ptr %120, align 8
  %122 = getelementptr inbounds %struct.H5A_attr_table_t, ptr %121, i32 0, i32 2
  %123 = load ptr, ptr %122, align 8
  %124 = load ptr, ptr %11, align 8
  %125 = getelementptr inbounds %struct.H5A_compact_bt_ud_t, ptr %124, i32 0, i32 1
  %126 = load ptr, ptr %125, align 8
  %127 = getelementptr inbounds %struct.H5A_attr_table_t, ptr %126, i32 0, i32 0
  %128 = load i64, ptr %127, align 8
  %129 = getelementptr inbounds ptr, ptr %123, i64 %128
  %130 = load ptr, ptr %129, align 8
  %131 = getelementptr inbounds %struct.H5A_t, ptr %130, i32 0, i32 4
  %132 = load ptr, ptr %131, align 8
  %133 = getelementptr inbounds %struct.H5A_shared_t, ptr %132, i32 0, i32 9
  store i32 %118, ptr %133, align 8
  br label %134

134:                                              ; preds = %117, %112
  %135 = load ptr, ptr %11, align 8
  %136 = getelementptr inbounds %struct.H5A_compact_bt_ud_t, ptr %135, i32 0, i32 1
  %137 = load ptr, ptr %136, align 8
  %138 = getelementptr inbounds %struct.H5A_attr_table_t, ptr %137, i32 0, i32 0
  %139 = load i64, ptr %138, align 8
  %140 = add i64 %139, 1
  store i64 %140, ptr %138, align 8
  br label %141

141:                                              ; preds = %134, %109, %66
  %142 = load i32, ptr %12, align 4
  ret i32 %142
}