; Function Attrs: nounwind uwtable
define internal range(i32 -1, 1) i32 @H5A__compact_build_table_cb(ptr nocapture readnone %0, ptr nocapture noundef readonly %1, i32 noundef %2, ptr nocapture readnone %3, ptr nocapture noundef readonly %4) #0 {
  %6 = getelementptr inbounds i8, ptr %4, i64 8
  %7 = load ptr, ptr %6, align 8
  %8 = load i64, ptr %7, align 8
  %9 = getelementptr inbounds i8, ptr %7, i64 8
  %10 = load i64, ptr %9, align 8
  %11 = icmp eq i64 %8, %10
  br i1 %11, label %12, label %27

12:                                               ; preds = %5
  %13 = shl i64 %8, 1
  %spec.select = tail call i64 @llvm.umax.i64(i64 %13, i64 1)
  %14 = getelementptr inbounds i8, ptr %7, i64 16
  %15 = load ptr, ptr %14, align 8
  %16 = tail call ptr @H5FL_seq_realloc(ptr noundef nonnull @H5_H5A_t_ptr_seq_free_list, ptr noundef %15, i64 noundef %spec.select) #13
  %17 = icmp eq ptr %16, null
  br i1 %17, label %18, label %22

18:                                               ; preds = %12
  %19 = load i64, ptr @H5E_RESOURCE_g, align 8
  %20 = load i64, ptr @H5E_NOSPACE_g, align 8
  %21 = tail call i32 (ptr, ptr, i32, i64, i64, ptr, ...) @H5E_printf_stack(ptr noundef nonnull @.str.3, ptr noundef nonnull @__func__.H5A__compact_build_table_cb, i32 noundef 1458, i64 noundef %19, i64 noundef %20, ptr noundef nonnull @.str.97) #13
  br label %59

22:                                               ; preds = %12
  %23 = load ptr, ptr %6, align 8
  %24 = getelementptr inbounds i8, ptr %23, i64 16
  store ptr %16, ptr %24, align 8
  %25 = load ptr, ptr %6, align 8
  %26 = getelementptr inbounds i8, ptr %25, i64 8
  store i64 %spec.select, ptr %26, align 8
  br label %27

27:                                               ; preds = %22, %5
  %28 = getelementptr inbounds i8, ptr %1, i64 24
  %29 = load ptr, ptr %28, align 8
  %30 = tail call ptr @H5A__copy(ptr noundef null, ptr noundef %29)
  %31 = load ptr, ptr %6, align 8
  %32 = getelementptr inbounds i8, ptr %31, i64 16
  %33 = load ptr, ptr %32, align 8
  %34 = load i64, ptr %31, align 8
  %35 = getelementptr inbounds ptr, ptr %33, i64 %34
  store ptr %30, ptr %35, align 8
  %36 = icmp eq ptr %30, null
  br i1 %36, label %37, label %41

37:                                               ; preds = %27
  %38 = load i64, ptr @H5E_ATTR_g, align 8
  %39 = load i64, ptr @H5E_CANTCOPY_g, align 8
  %40 = tail call i32 (ptr, ptr, i32, i64, i64, ptr, ...) @H5E_printf_stack(ptr noundef nonnull @.str.3, ptr noundef nonnull @__func__.H5A__compact_build_table_cb, i32 noundef 1468, i64 noundef %38, i64 noundef %39, ptr noundef nonnull @.str.98) #13
  br label %59

41:                                               ; preds = %27
  %42 = getelementptr inbounds i8, ptr %4, i64 16
  %43 = load i8, ptr %42, align 8
  %44 = trunc i8 %43 to i1
  br i1 %44, label %45, label %55

45:                                               ; preds = %41
  %46 = load ptr, ptr %6, align 8
  %47 = getelementptr inbounds i8, ptr %46, i64 16
  %48 = load ptr, ptr %47, align 8
  %49 = load i64, ptr %46, align 8
  %50 = getelementptr inbounds ptr, ptr %48, i64 %49
  %51 = load ptr, ptr %50, align 8
  %52 = getelementptr inbounds i8, ptr %51, i64 96
  %53 = load ptr, ptr %52, align 8
  %54 = getelementptr inbounds i8, ptr %53, i64 72
  store i32 %2, ptr %54, align 8
  br label %55

55:                                               ; preds = %45, %41
  %56 = load ptr, ptr %6, align 8
  %57 = load i64, ptr %56, align 8
  %58 = add i64 %57, 1
  store i64 %58, ptr %56, align 8
  br label %59

59:                                               ; preds = %55, %37, %18
  %.0 = phi i32 [ -1, %18 ], [ -1, %37 ], [ 0, %55 ]
  ret i32 %.0
}